; Function Attrs: mustprogress nounwind uwtable
define hidden void @_ZN6Bundle15initialize_nopsEPP8MachNode(ptr nocapture noundef writeonly %0) local_unnamed_addr #3 align 2 {
  %2 = tail call align 8 ptr @llvm.threadlocal.address.p0(ptr align 8 @_ZN6Thread12_thr_currentE)
  %3 = load ptr, ptr %2, align 8
  %4 = getelementptr inbounds i8, ptr %3, i64 1808
  %5 = load ptr, ptr %4, align 8
  %6 = getelementptr inbounds i8, ptr %5, i64 128
  %7 = load ptr, ptr %6, align 8
  %8 = getelementptr inbounds i8, ptr %7, i64 728
  %9 = load ptr, ptr %8, align 8
  %10 = getelementptr inbounds i8, ptr %9, i64 40
  %11 = load ptr, ptr %10, align 8
  %12 = getelementptr inbounds i8, ptr %9, i64 32
  %13 = load ptr, ptr %12, align 8
  %14 = ptrtoint ptr %11 to i64
  %15 = ptrtoint ptr %13 to i64
  %16 = sub i64 %14, %15
  %.not.i.i.i = icmp ult i64 %16, 72
  br i1 %.not.i.i.i, label %19, label %17

17:                                               ; preds = %1
  %18 = getelementptr inbounds i8, ptr %13, i64 72
  store ptr %18, ptr %12, align 8
  br label %_ZN4NodenwEm.exit

19:                                               ; preds = %1
  %20 = tail call noundef ptr @_ZN5Arena4growEmN17AllocFailStrategy13AllocFailEnumE(ptr noundef nonnull align 8 dereferenceable(48) %9, i64 noundef 72, i32 noundef 0) #10
  br label %_ZN4NodenwEm.exit

_ZN4NodenwEm.exit:                                ; preds = %17, %19
  %.0.i.i.i = phi ptr [ %13, %17 ], [ %20, %19 ]
  %21 = icmp eq ptr %.0.i.i.i, null
  br i1 %21, label %28, label %22

22:                                               ; preds = %_ZN4NodenwEm.exit
  tail call void @_ZN4NodeC2Ej(ptr noundef nonnull align 8 dereferenceable(52) %.0.i.i.i, i32 noundef 0) #10
  %23 = getelementptr inbounds i8, ptr %.0.i.i.i, i64 52
  store i8 0, ptr %23, align 4
  %24 = getelementptr inbounds i8, ptr %.0.i.i.i, i64 54
  store i16 0, ptr %24, align 2
  %25 = getelementptr inbounds i8, ptr %.0.i.i.i, i64 56
  store ptr null, ptr %25, align 8
  %26 = getelementptr inbounds i8, ptr %.0.i.i.i, i64 44
  store i32 2, ptr %26, align 4
  store ptr getelementptr inbounds inrange(-16, 360) (i8, ptr @_ZTV11MachNopNode, i64 16), ptr %.0.i.i.i, align 8
  %27 = getelementptr inbounds i8, ptr %.0.i.i.i, i64 64
  store i32 1, ptr %27, align 8
  br label %28

28:                                               ; preds = %22, %_ZN4NodenwEm.exit
  store ptr %.0.i.i.i, ptr %0, align 8
  ret void
}